target datalayout = "e-m:e-p270:32:32-p271:32:32-p272:64:64-i64:64-i128:128-f80:128-n8:16:32:64-S128"
target triple = "x86_64-pc-linux-gnu"

%struct.strvec = type { ptr, i64, i64 }
%struct.child_process = type { %struct.strvec, %struct.strvec, i32, i32, i64, ptr, ptr, i32, i32, i32, ptr, i16, ptr }

@.str.46 = private unnamed_addr constant [10 x i8] c"diff-tree\00", align 1
@.str.47 = private unnamed_addr constant [9 x i8] c"--binary\00", align 1
@.str.48 = private unnamed_addr constant [12 x i8] c"%s^2^..%s^2\00", align 1

; Function Attrs: nounwind uwtable
define internal i32 @diff_tree_binary(ptr noundef %0, ptr noundef %1) #0 {
  %3 = alloca ptr, align 8
  %4 = alloca ptr, align 8
  %5 = alloca %struct.child_process, align 8
  %6 = alloca ptr, align 8
  store ptr %0, ptr %3, align 8, !tbaa !127
  store ptr %1, ptr %4, align 8, !tbaa !129
  call void @llvm.lifetime.start.p0(i64 120, ptr %5) #9
  call void @llvm.memcpy.p0.p0.i64(ptr align 8 %5, ptr align 8 @__const.diff_tree_binary.cp, i64 120, i1 false)
  call void @llvm.lifetime.start.p0(i64 8, ptr %6) #9
  %7 = load ptr, ptr %4, align 8, !tbaa !129
  %8 = call ptr @oid_to_hex(ptr noundef %7)
  store ptr %8, ptr %6, align 8, !tbaa !11
  %9 = getelementptr inbounds nuw %struct.child_process, ptr %5, i32 0, i32 11
  %10 = load i16, ptr %9, align 8
  %11 = and i16 %10, -9
  %12 = or i16 %11, 8
  store i16 %12, ptr %9, align 8
  %13 = getelementptr inbounds nuw %struct.child_process, ptr %5, i32 0, i32 0
  call void (ptr, ...) @strvec_pushl(ptr noundef %13, ptr noundef @.str.46, ptr noundef @.str.47, ptr noundef null)
  %14 = getelementptr inbounds nuw %struct.child_process, ptr %5, i32 0, i32 0
  %15 = load ptr, ptr %6, align 8, !tbaa !11
  %16 = load ptr, ptr %6, align 8, !tbaa !11
  %17 = call ptr (ptr, ptr, ...) @strvec_pushf(ptr noundef %14, ptr noundef @.str.48, ptr noundef %15, ptr noundef %16)
  %18 = load ptr, ptr %3, align 8, !tbaa !127
  %19 = call i32 @pipe_command(ptr noundef %5, ptr noundef null, i64 noundef 0, ptr noundef %18, i64 noundef 0, ptr noundef null, i64 noundef 0)
  call void @llvm.lifetime.end.p0(i64 8, ptr %6) #9
  call void @llvm.lifetime.end.p0(i64 120, ptr %5) #9
  ret i32 %19
}