; Function Attrs: nounwind uwtable
define internal fastcc i32 @diff_tree_binary(ptr noundef nonnull %0, ptr noundef nonnull %1) unnamed_addr #0 {
  %3 = alloca %struct.child_process, align 8
  call void @llvm.lifetime.start.p0(i64 120, ptr nonnull %3) #15
  call void @llvm.memcpy.p0.p0.i64(ptr noundef nonnull align 8 dereferenceable(120) %3, ptr noundef nonnull align 8 dereferenceable(120) @__const.do_push_stash.cp.159, i64 120, i1 false)
  %4 = tail call ptr @oid_to_hex(ptr noundef nonnull %1) #15
  %5 = getelementptr inbounds nuw i8, ptr %3, i64 104
  store i16 8, ptr %5, align 8
  call void (ptr, ...) @strvec_pushl(ptr noundef nonnull %3, ptr noundef nonnull @.str.46, ptr noundef nonnull @.str.47, ptr noundef null) #15
  %6 = call ptr (ptr, ptr, ...) @strvec_pushf(ptr noundef nonnull %3, ptr noundef nonnull @.str.48, ptr noundef %4, ptr noundef %4) #15
  %7 = call i32 @pipe_command(ptr noundef nonnull %3, ptr noundef null, i64 noundef 0, ptr noundef nonnull %0, i64 noundef 0, ptr noundef null, i64 noundef 0) #15
  call void @llvm.lifetime.end.p0(i64 120, ptr nonnull %3) #15
  ret i32 %7
}